; Function Attrs: nounwind uwtable
define ptr @l_Lean_Meta_withLetDecl___at___private_Lean_Meta_ExprLens_0__Lean_Meta_lensCoord___spec__1___rarg(ptr noundef %0, ptr noundef %1, ptr readnone captures(none) %2, ptr noundef %3, ptr noundef %4, ptr noundef %5, ptr noundef %6, i8 noundef zeroext %7) local_unnamed_addr #0 {
  %9 = getelementptr inbounds nuw i8, ptr %0, i64 16
  %10 = load ptr, ptr %9, align 8, !tbaa !9
  %11 = ptrtoint ptr %10 to i64
  %12 = and i64 %11, 1
  %.not = icmp eq i64 %12, 0
  br i1 %.not, label %13, label %lean_inc.exit

13:                                               ; preds = %8
  %.val.i = load i32, ptr %10, align 4, !tbaa !4
  %14 = icmp sgt i32 %.val.i, 0
  br i1 %14, label %15, label %17, !prof !13

15:                                               ; preds = %13
  %16 = add nuw i32 %.val.i, 1
  store i32 %16, ptr %10, align 4, !tbaa !4
  br label %lean_inc.exit

17:                                               ; preds = %13
  %.not.i30 = icmp eq i32 %.val.i, 0
  br i1 %.not.i30, label %lean_inc.exit, label %18

18:                                               ; preds = %17
  tail call void @lean_inc_ref_cold(ptr noundef nonnull %10) #5
  br label %lean_inc.exit

lean_inc.exit:                                    ; preds = %18, %17, %15, %8
  %19 = ptrtoint ptr %0 to i64
  %20 = and i64 %19, 1
  %.not37 = icmp eq i64 %20, 0
  br i1 %.not37, label %21, label %lean_dec.exit

21:                                               ; preds = %lean_inc.exit
  %22 = load i32, ptr %0, align 4, !tbaa !4
  %23 = icmp sgt i32 %22, 1
  br i1 %23, label %24, label %26, !prof !13

24:                                               ; preds = %21
  %25 = add nsw i32 %22, -1
  store i32 %25, ptr %0, align 4, !tbaa !4
  br label %lean_dec.exit

26:                                               ; preds = %21
  %.not.i28 = icmp eq i32 %22, 0
  br i1 %.not.i28, label %lean_dec.exit, label %27

27:                                               ; preds = %26
  tail call void @lean_dec_ref_cold(ptr noundef nonnull %0) #5
  br label %lean_dec.exit

lean_dec.exit:                                    ; preds = %27, %26, %24, %lean_inc.exit
  tail call void @lean_inc_heartbeat() #5
  %28 = tail call noalias ptr @mi_malloc_small(i64 noundef 64) #5
  %29 = icmp eq ptr %28, null
  br i1 %29, label %30, label %lean_alloc_closure.exit

30:                                               ; preds = %lean_dec.exit
  tail call void @lean_internal_panic_out_of_memory() #6
  unreachable

lean_alloc_closure.exit:                          ; preds = %lean_dec.exit
  %31 = zext i8 %7 to i64
  %32 = shl nuw nsw i64 %31, 1
  %33 = or disjoint i64 %32, 1
  %34 = inttoptr i64 %33 to ptr
  %35 = getelementptr inbounds nuw i8, ptr %28, i64 4
  store i32 1, ptr %28, align 4, !tbaa !4
  store i32 -184549312, ptr %35, align 4
  %36 = getelementptr inbounds nuw i8, ptr %28, i64 8
  store ptr @l_Lean_Meta_withLetDecl___at___private_Lean_Meta_ExprLens_0__Lean_Meta_lensCoord___spec__1___rarg___lambda__2___boxed, ptr %36, align 8, !tbaa !9
  %37 = getelementptr inbounds nuw i8, ptr %28, i64 16
  store i16 11, ptr %37, align 8, !tbaa !11
  %38 = getelementptr inbounds nuw i8, ptr %28, i64 18
  store i16 5, ptr %38, align 2, !tbaa !11
  %39 = getelementptr inbounds nuw i8, ptr %28, i64 24
  store ptr %6, ptr %39, align 8, !tbaa !9
  %40 = getelementptr inbounds nuw i8, ptr %28, i64 32
  store ptr %3, ptr %40, align 8, !tbaa !9
  %41 = getelementptr inbounds nuw i8, ptr %28, i64 40
  store ptr %4, ptr %41, align 8, !tbaa !9
  %42 = getelementptr inbounds nuw i8, ptr %28, i64 48
  store ptr %5, ptr %42, align 8, !tbaa !9
  %43 = getelementptr inbounds nuw i8, ptr %28, i64 56
  store ptr %34, ptr %43, align 8, !tbaa !9
  %44 = getelementptr inbounds nuw i8, ptr %1, i64 8
  %45 = load ptr, ptr %44, align 8, !tbaa !9
  %46 = ptrtoint ptr %45 to i64
  %47 = and i64 %46, 1
  %.not38 = icmp eq i64 %47, 0
  br i1 %.not38, label %48, label %lean_inc.exit25

48:                                               ; preds = %lean_alloc_closure.exit
  %.val.i31 = load i32, ptr %45, align 4, !tbaa !4
  %49 = icmp sgt i32 %.val.i31, 0
  br i1 %49, label %50, label %52, !prof !13

50:                                               ; preds = %48
  %51 = add nuw i32 %.val.i31, 1
  store i32 %51, ptr %45, align 4, !tbaa !4
  br label %lean_inc.exit25

52:                                               ; preds = %48
  %.not.i32 = icmp eq i32 %.val.i31, 0
  br i1 %.not.i32, label %lean_inc.exit25, label %53

53:                                               ; preds = %52
  tail call void @lean_inc_ref_cold(ptr noundef nonnull %45) #5
  br label %lean_inc.exit25

lean_inc.exit25:                                  ; preds = %53, %52, %50, %lean_alloc_closure.exit
  %54 = tail call ptr @lean_apply_2(ptr noundef %45, ptr noundef nonnull inttoptr (i64 1 to ptr), ptr noundef nonnull %28) #5
  %55 = getelementptr inbounds nuw i8, ptr %1, i64 16
  %56 = load ptr, ptr %55, align 8, !tbaa !9
  %57 = ptrtoint ptr %56 to i64
  %58 = and i64 %57, 1
  %.not39 = icmp eq i64 %58, 0
  br i1 %.not39, label %59, label %lean_inc.exit26

59:                                               ; preds = %lean_inc.exit25
  %.val.i34 = load i32, ptr %56, align 4, !tbaa !4
  %60 = icmp sgt i32 %.val.i34, 0
  br i1 %60, label %61, label %63, !prof !13

61:                                               ; preds = %59
  %62 = add nuw i32 %.val.i34, 1
  store i32 %62, ptr %56, align 4, !tbaa !4
  br label %lean_inc.exit26

63:                                               ; preds = %59
  %.not.i35 = icmp eq i32 %.val.i34, 0
  br i1 %.not.i35, label %lean_inc.exit26, label %64

64:                                               ; preds = %63
  tail call void @lean_inc_ref_cold(ptr noundef nonnull %56) #5
  br label %lean_inc.exit26

lean_inc.exit26:                                  ; preds = %64, %63, %61, %lean_inc.exit25
  %65 = ptrtoint ptr %1 to i64
  %66 = and i64 %65, 1
  %.not40 = icmp eq i64 %66, 0
  br i1 %.not40, label %67, label %lean_dec.exit27

67:                                               ; preds = %lean_inc.exit26
  %68 = load i32, ptr %1, align 4, !tbaa !4
  %69 = icmp sgt i32 %68, 1
  br i1 %69, label %70, label %72, !prof !13

70:                                               ; preds = %67
  %71 = add nsw i32 %68, -1
  store i32 %71, ptr %1, align 4, !tbaa !4
  br label %lean_dec.exit27

72:                                               ; preds = %67
  %.not.i = icmp eq i32 %68, 0
  br i1 %.not.i, label %lean_dec.exit27, label %73

73:                                               ; preds = %72
  tail call void @lean_dec_ref_cold(ptr noundef nonnull %1) #5
  br label %lean_dec.exit27

lean_dec.exit27:                                  ; preds = %73, %72, %70, %lean_inc.exit26
  %74 = tail call ptr @lean_apply_1(ptr noundef %56, ptr noundef nonnull inttoptr (i64 1 to ptr)) #5
  %75 = tail call ptr @lean_apply_4(ptr noundef %10, ptr noundef nonnull inttoptr (i64 1 to ptr), ptr noundef nonnull inttoptr (i64 1 to ptr), ptr noundef %54, ptr noundef %74) #5
  ret ptr %75
}